; ModuleID = '10/1881.c'
source_filename = "10/1881.c"
target datalayout = "e-m:e-p270:32:32-p271:32:32-p272:64:64-i64:64-f80:128-n8:16:32:64-S128"
target triple = "x86_64-pc-linux-gnu"

@.str = private unnamed_addr constant [3 x i8] c"%d\00", align 1
@.str.1 = private unnamed_addr constant [4 x i8] c"%d\0A\00", align 1

; Function Attrs: noinline nounwind uwtable
define dso_local i32 @main() #0 {
  %1 = alloca i32, align 4
  %2 = alloca i32, align 4
  %3 = alloca i8*, align 8
  %4 = alloca i64, align 8
  %5 = alloca i64, align 8
  %6 = alloca i32, align 4
  %7 = alloca i32, align 4
  %8 = alloca i32, align 4
  %9 = alloca i32, align 4
  %10 = alloca i32, align 4
  store i32 0, i32* %1, align 4
  %11 = call i32 (i8*, ...) @__isoc99_scanf(i8* getelementptr inbounds ([3 x i8], [3 x i8]* @.str, i64 0, i64 0), i32* %2)
  %12 = load i32, i32* %2, align 4
  %13 = zext i32 %12 to i64
  %14 = call i8* @llvm.stacksave()
  store i8* %14, i8** %3, align 8
  %15 = alloca i32, i64 %13, align 16
  store i64 %13, i64* %4, align 8
  %16 = load i32, i32* %2, align 4
  %17 = zext i32 %16 to i64
  %18 = alloca i32, i64 %17, align 16
  store i64 %17, i64* %5, align 8
  store i32 0, i32* %6, align 4
  br label %19

19:                                               ; preds = %31, %0
  %20 = load i32, i32* %6, align 4
  %21 = load i32, i32* %2, align 4
  %22 = icmp slt i32 %20, %21
  br i1 %22, label %23, label %34

23:                                               ; preds = %19
  %24 = load i32, i32* %6, align 4
  %25 = sext i32 %24 to i64
  %26 = getelementptr inbounds i32, i32* %15, i64 %25
  %27 = call i32 (i8*, ...) @__isoc99_scanf(i8* getelementptr inbounds ([3 x i8], [3 x i8]* @.str, i64 0, i64 0), i32* %26)
  %28 = load i32, i32* %6, align 4
  %29 = sext i32 %28 to i64
  %30 = getelementptr inbounds i32, i32* %18, i64 %29
  store i32 1, i32* %30, align 4
  br label %31

31:                                               ; preds = %23
  %32 = load i32, i32* %6, align 4
  %33 = add nsw i32 %32, 1
  store i32 %33, i32* %6, align 4
  br label %19

34:                                               ; preds = %19
  store i32 0, i32* %7, align 4
  br label %35

35:                                               ; preds = %86, %34
  %36 = load i32, i32* %7, align 4
  %37 = load i32, i32* %2, align 4
  %38 = icmp slt i32 %36, %37
  br i1 %38, label %39, label %89

39:                                               ; preds = %35
  store i32 0, i32* %8, align 4
  br label %40

40:                                               ; preds = %82, %39
  %41 = load i32, i32* %8, align 4
  %42 = load i32, i32* %7, align 4
  %43 = icmp slt i32 %41, %42
  br i1 %43, label %44, label %85

44:                                               ; preds = %40
  %45 = load i32, i32* %8, align 4
  %46 = sext i32 %45 to i64
  %47 = getelementptr inbounds i32, i32* %15, i64 %46
  %48 = load i32, i32* %47, align 4
  %49 = load i32, i32* %7, align 4
  %50 = sext i32 %49 to i64
  %51 = getelementptr inbounds i32, i32* %15, i64 %50
  %52 = load i32, i32* %51, align 4
  %53 = icmp sge i32 %48, %52
  br i1 %53, label %54, label %81

54:                                               ; preds = %44
  %55 = load i32, i32* %8, align 4
  %56 = sext i32 %55 to i64
  %57 = getelementptr inbounds i32, i32* %18, i64 %56
  %58 = load i32, i32* %57, align 4
  %59 = add nsw i32 %58, 1
  %60 = load i32, i32* %7, align 4
  %61 = sext i32 %60 to i64
  %62 = getelementptr inbounds i32, i32* %18, i64 %61
  %63 = load i32, i32* %62, align 4
  %64 = icmp sgt i32 %59, %63
  br i1 %64, label %65, label %71

65:                                               ; preds = %54
  %66 = load i32, i32* %8, align 4
  %67 = sext i32 %66 to i64
  %68 = getelementptr inbounds i32, i32* %18, i64 %67
  %69 = load i32, i32* %68, align 4
  %70 = add nsw i32 %69, 1
  br label %76

71:                                               ; preds = %54
  %72 = load i32, i32* %7, align 4
  %73 = sext i32 %72 to i64
  %74 = getelementptr inbounds i32, i32* %18, i64 %73
  %75 = load i32, i32* %74, align 4
  br label %76

76:                                               ; preds = %71, %65
  %77 = phi i32 [ %70, %65 ], [ %75, %71 ]
  %78 = load i32, i32* %7, align 4
  %79 = sext i32 %78 to i64
  %80 = getelementptr inbounds i32, i32* %18, i64 %79
  store i32 %77, i32* %80, align 4
  br label %81

81:                                               ; preds = %76, %44
  br label %82

82:                                               ; preds = %81
  %83 = load i32, i32* %8, align 4
  %84 = add nsw i32 %83, 1
  store i32 %84, i32* %8, align 4
  br label %40

85:                                               ; preds = %40
  br label %86

86:                                               ; preds = %85
  %87 = load i32, i32* %7, align 4
  %88 = add nsw i32 %87, 1
  store i32 %88, i32* %7, align 4
  br label %35

89:                                               ; preds = %35
  %90 = getelementptr inbounds i32, i32* %18, i64 0
  %91 = load i32, i32* %90, align 16
  store i32 %91, i32* %9, align 4
  store i32 1, i32* %10, align 4
  br label %92

92:                                               ; preds = %109, %89
  %93 = load i32, i32* %10, align 4
  %94 = load i32, i32* %2, align 4
  %95 = icmp slt i32 %93, %94
  br i1 %95, label %96, label %112

96:                                               ; preds = %92
  %97 = load i32, i32* %10, align 4
  %98 = sext i32 %97 to i64
  %99 = getelementptr inbounds i32, i32* %18, i64 %98
  %100 = load i32, i32* %99, align 4
  %101 = load i32, i32* %9, align 4
  %102 = icmp sgt i32 %100, %101
  br i1 %102, label %103, label %108

103:                                              ; preds = %96
  %104 = load i32, i32* %10, align 4
  %105 = sext i32 %104 to i64
  %106 = getelementptr inbounds i32, i32* %18, i64 %105
  %107 = load i32, i32* %106, align 4
  store i32 %107, i32* %9, align 4
  br label %108

108:                                              ; preds = %103, %96
  br label %109

109:                                              ; preds = %108
  %110 = load i32, i32* %10, align 4
  %111 = add nsw i32 %110, 1
  store i32 %111, i32* %10, align 4
  br label %92

112:                                              ; preds = %92
  %113 = load i32, i32* %9, align 4
  %114 = call i32 (i8*, ...) @printf(i8* getelementptr inbounds ([4 x i8], [4 x i8]* @.str.1, i64 0, i64 0), i32 %113)
  store i32 0, i32* %1, align 4
  %115 = load i8*, i8** %3, align 8
  call void @llvm.stackrestore(i8* %115)
  %116 = load i32, i32* %1, align 4
  ret i32 %116
}

declare dso_local i32 @__isoc99_scanf(i8*, ...) #1

; Function Attrs: nounwind
declare i8* @llvm.stacksave() #2

declare dso_local i32 @printf(i8*, ...) #1

; Function Attrs: nounwind
declare void @llvm.stackrestore(i8*) #2


!llvm.module.flags = !{!0}
!llvm.ident = !{!1}

!0 = !{i32 1, !"wchar_size", i32 4}
!1 = !{!"clang version 10.0.0-4ubuntu1 "}
